; Function Attrs: mustprogress nofree norecurse nosync nounwind willreturn memory(read, argmem: readwrite, inaccessiblemem: none) uwtable
define dso_local noundef range(i32 -1, 256) i32 @_ZNSt3__112strstreambuf9underflowEv(ptr noundef nonnull align 8 captures(none) dereferenceable(96) %0) unnamed_addr #13 align 2 {
  %2 = getelementptr inbounds nuw i8, ptr %0, i64 24
  %3 = load ptr, ptr %2, align 8, !tbaa !24
  %4 = getelementptr inbounds nuw i8, ptr %0, i64 32
  %5 = load ptr, ptr %4, align 8, !tbaa !25
  %6 = icmp eq ptr %3, %5
  br i1 %6, label %7, label %11

7:                                                ; preds = %1
  %8 = getelementptr inbounds nuw i8, ptr %0, i64 48
  %9 = load ptr, ptr %8, align 8, !tbaa !20
  %.not = icmp ult ptr %3, %9
  br i1 %.not, label %10, label %14

10:                                               ; preds = %7
  store ptr %9, ptr %4, align 8, !tbaa !25
  br label %11

11:                                               ; preds = %10, %1
  %12 = load i8, ptr %3, align 1, !tbaa !30
  %13 = zext i8 %12 to i32
  br label %14

14:                                               ; preds = %7, %11
  %.0 = phi i32 [ %13, %11 ], [ -1, %7 ]
  ret i32 %.0
}